Certificate:
    Data:
        Version: 3 (0x2)
        Serial Number:
            df:86:a0:81:95:d1:89:97
        Signature Algorithm: sha1WithRSAEncryption
        Issuer: C=US, ST=Missouri, O=Object Computing, Inc., OU=TAO, CN=John Smith/emailAddress=smith_j@ociweb.com
        Validity
            Not Before: Apr 20 20:28:27 2007 GMT
            Not After : Apr 19 20:28:27 2008 GMT
        Subject: C=US, ST=MO, L=St. Louis, O=OCI, OU=TAO, CN=John/emailAddress=john@ociweb.com
        Subject Public Key Info:
            Public Key Algorithm: rsaEncryption
            RSA Public Key: (1024 bit)
                Modulus (1024 bit):
                    00:91:d3:36:73:d2:dc:13:77:1d:64:dc:b6:a5:16:
                    ee:49:88:16:77:dd:03:9b:26:23:d3:ea:94:5d:d5:
                    ff:f5:a4:a6:a5:06:6d:17:a5:aa:4f:27:00:fc:9c:
                    05:48:c0:0a:78:a6:5d:bb:22:79:5f:95:a5:da:e7:
                    d6:eb:73:6a:d3:5f:f4:cd:e9:b7:54:34:78:d8:0c:
                    f6:84:24:63:cb:f5:24:af:89:10:74:30:bd:4e:d4:
                    6b:d4:34:af:81:98:48:c3:75:35:ca:35:12:20:92:
                    99:0f:16:01:54:13:53:cb:a1:a0:6c:72:5b:0a:b6:
                    5b:73:27:7a:49:87:db:0a:03
                Exponent: 65537 (0x10001)
        X509v3 extensions:
            X509v3 Basic Constraints: 
                CA:FALSE
            Netscape Comment: 
                OpenSSL Generated Certificate
            X509v3 Subject Key Identifier: 
                45:40:E1:41:6F:A6:97:56:39:36:0C:0A:29:64:7F:B5:C4:21:24:0F
            X509v3 Authority Key Identifier: 
                keyid:41:D0:CC:3E:A1:3B:77:E3:BB:CC:D2:63:03:98:5F:E3:19:3C:C4:D2

    Signature Algorithm: sha1WithRSAEncryption
        c8:34:ac:71:2a:a5:22:61:ac:d2:88:c9:68:27:20:63:d6:5a:
        5d:ec:ff:c8:e7:8e:0e:65:3b:28:29:ab:c0:de:42:c6:5b:03:
        8f:be:11:0a:f9:30:8e:ff:f0:9f:12:b5:55:49:33:b2:c9:11:
        0c:9e:37:16:db:0d:39:14:62:b8:0c:d3:76:a0:28:18:87:13:
        80:dd:8e:22:9c:57:89:b7:f6:3a:59:07:df:d6:0f:6a:2b:c5:
        f5:28:bc:5d:fa:8b:0e:56:cc:37:e4:e8:4e:31:7d:ad:8c:7d:
        b6:15:18:17:c9:4c:42:a9:67:c3:99:1d:5d:3e:49:5e:93:fd:
        f8:e1
-----BEGIN CERTIFICATE-----
MIIC+jCCAmOgAwIBAgIJAN+GoIGV0YmXMA0GCSqGSIb3DQEBBQUAMIGHMQswCQYD
VQQGEwJVUzERMA8GA1UECBMITWlzc291cmkxHzAdBgNVBAoTFk9iamVjdCBDb21w
dXRpbmcsIEluYy4xDDAKBgNVBAsTA1RBTzETMBEGA1UEAxMKSm9obiBTbWl0aDEh
MB8GCSqGSIb3DQEJARYSc21pdGhfakBvY2l3ZWIuY29tMB4XDTA3MDQyMDIwMjgy
N1oXDTA4MDQxOTIwMjgyN1oweTELMAkGA1UEBhMCVVMxCzAJBgNVBAgTAk1PMRIw
EAYDVQQHEwlTdC4gTG91aXMxDDAKBgNVBAoTA09DSTEMMAoGA1UECxMDVEFPMQ0w
CwYDVQQDEwRKb2huMR4wHAYJKoZIhvcNAQkBFg9qb2huQG9jaXdlYi5jb20wgZ8w
DQYJKoZIhvcNAQEBBQADgY0AMIGJAoGBAJHTNnPS3BN3HWTctqUW7kmIFnfdA5sm
I9PqlF3V//WkpqUGbRelqk8nAPycBUjACnimXbsieV+Vpdrn1utzatNf9M3pt1Q0
eNgM9oQkY8v1JK+JEHQwvU7Ua9Q0r4GYSMN1Nco1EiCSmQ8WAVQTU8uhoGxyWwq2
W3MnekmH2woDAgMBAAGjezB5MAkGA1UdEwQCMAAwLAYJYIZIAYb4QgENBB8WHU9w
ZW5TU0wgR2VuZXJhdGVkIENlcnRpZmljYXRlMB0GA1UdDgQWBBRFQOFBb6aXVjk2
DAopZH+1xCEkDzAfBgNVHSMEGDAWgBRB0Mw+oTt347vM0mMDmF/jGTzE0jANBgkq
hkiG9w0BAQUFAAOBgQDINKxxKqUiYazSiMloJyBj1lpd7P/I544OZTsoKavA3kLG
WwOPvhEK+TCO//CfErVVSTOyyREMnjcW2w05FGK4DNN2oCgYhxOA3Y4inFeJt/Y6
WQff1g9qK8X1KLxd+osOVsw35OhOMX2tjH22FRgXyUxCqWfDmR1dPklek/344Q==
-----END CERTIFICATE-----
