issuer :/C=US/ST=Missouri/L=St.Louis/O=Testing CA/CN=Carlos O'Ryan/Email=coryan@cs.wustl.edu
subject:/C=US/ST=Missouri/L=St.Louis/O=Internet Widgits Pty Ltd/CN=Carlos O'Ryan/Email=coryan@cs.wustl.edu
serial :01

Certificate:
    Data:
        Version: 3 (0x2)
        Serial Number: 1 (0x1)
        Signature Algorithm: md5WithRSAEncryption
        Issuer: C=US, ST=Missouri, L=St.Louis, O=Testing CA, CN=Carlos O'Ryan/Email=coryan@cs.wustl.edu
        Validity
            Not Before: Dec  7 18:57:15 1999 GMT
            Not After : Dec  6 18:57:15 2000 GMT
        Subject: C=US, ST=Missouri, L=St.Louis, O=Internet Widgits Pty Ltd, CN=Carlos O'Ryan/Email=coryan@cs.wustl.edu
        Subject Public Key Info:
            Public Key Algorithm: rsaEncryption
            RSA Public Key: (1024 bit)
                Modulus (1024 bit):
                    00:ce:b5:f2:f1:85:c5:a4:b6:b8:d8:fd:4f:4c:76:
                    cc:bd:59:a5:1e:a8:56:46:5a:4c:f6:82:49:ca:30:
                    da:df:26:72:80:76:6b:94:45:a3:f6:1b:d5:f9:eb:
                    91:61:83:2a:c4:a5:be:5b:60:95:02:dd:a4:cb:85:
                    da:f9:36:c0:c5:b7:75:75:86:1b:3d:ad:eb:fa:59:
                    27:8e:36:68:80:94:ea:d4:ac:a0:81:72:91:77:2b:
                    41:f2:53:86:d5:a7:4e:bf:16:0b:56:15:4a:7c:8d:
                    af:3c:07:cc:cb:87:06:a4:e8:a0:06:60:15:10:65:
                    75:6d:32:c6:89:96:26:0b:35
                Exponent: 65537 (0x10001)
        X509v3 extensions:
            X509v3 Basic Constraints: 
                CA:FALSE
            Netscape Comment: 
                OpenSSL Generated Certificate
            X509v3 Subject Key Identifier: 
                7D:33:7B:93:FE:AB:B6:9F:A6:11:90:ED:F8:BF:1E:6C:81:E0:3E:77
            X509v3 Authority Key Identifier: 
                keyid:3F:A8:B9:3B:3C:3A:78:59:08:72:29:42:A3:11:F4:91:AF:EB:0B:DE
                DirName:/C=US/ST=Missouri/L=St.Louis/O=Testing CA/CN=Carlos O'Ryan/Email=coryan@cs.wustl.edu
                serial:00

    Signature Algorithm: md5WithRSAEncryption
        a9:d3:93:da:86:88:56:15:80:ff:7c:79:ec:4b:94:51:1c:c2:
        4d:1f:72:c3:cc:18:f4:98:93:ef:e9:28:a6:e2:16:60:04:4f:
        cf:f5:52:ea:6a:1d:32:93:10:a9:c7:a2:73:3b:40:43:b9:3c:
        ea:6d:50:2a:f6:70:d6:31:48:34:d6:f9:ad:8d:44:e5:8a:14:
        30:51:87:99:1c:6c:53:fe:9d:d1:ff:54:e2:26:0e:62:74:36:
        2a:a5:75:3f:55:5a:73:3d:35:bd:fb:24:03:20:c6:4f:61:b3:
        17:fc:2b:ca:a6:9f:f4:d4:96:75:1e:90:07:bf:fc:85:4e:ba:
        a2:a5

-----BEGIN CERTIFICATE-----
MIIDoDCCAwmgAwIBAgIBATANBgkqhkiG9w0BAQQFADCBhDELMAkGA1UEBhMCVVMx
ETAPBgNVBAgTCE1pc3NvdXJpMREwDwYDVQQHEwhTdC5Mb3VpczETMBEGA1UEChMK
VGVzdGluZyBDQTEWMBQGA1UEAxMNQ2FybG9zIE8nUnlhbjEiMCAGCSqGSIb3DQEJ
ARYTY29yeWFuQGNzLnd1c3RsLmVkdTAeFw05OTEyMDcxODU3MTVaFw0wMDEyMDYx
ODU3MTVaMIGSMQswCQYDVQQGEwJVUzERMA8GA1UECBMITWlzc291cmkxETAPBgNV
BAcTCFN0LkxvdWlzMSEwHwYDVQQKExhJbnRlcm5ldCBXaWRnaXRzIFB0eSBMdGQx
FjAUBgNVBAMTDUNhcmxvcyBPJ1J5YW4xIjAgBgkqhkiG9w0BCQEWE2NvcnlhbkBj
cy53dXN0bC5lZHUwgZ8wDQYJKoZIhvcNAQEBBQADgY0AMIGJAoGBAM618vGFxaS2
uNj9T0x2zL1ZpR6oVkZaTPaCScow2t8mcoB2a5RFo/Yb1fnrkWGDKsSlvltglQLd
pMuF2vk2wMW3dXWGGz2t6/pZJ442aICU6tSsoIFykXcrQfJThtWnTr8WC1YVSnyN
rzwHzMuHBqTooAZgFRBldW0yxomWJgs1AgMBAAGjggEQMIIBDDAJBgNVHRMEAjAA
MCwGCWCGSAGG+EIBDQQfFh1PcGVuU1NMIEdlbmVyYXRlZCBDZXJ0aWZpY2F0ZTAd
BgNVHQ4EFgQUfTN7k/6rtp+mEZDt+L8ebIHgPncwgbEGA1UdIwSBqTCBpoAUP6i5
Ozw6eFkIcilCoxH0ka/rC96hgYqkgYcwgYQxCzAJBgNVBAYTAlVTMREwDwYDVQQI
EwhNaXNzb3VyaTERMA8GA1UEBxMIU3QuTG91aXMxEzARBgNVBAoTClRlc3Rpbmcg
Q0ExFjAUBgNVBAMTDUNhcmxvcyBPJ1J5YW4xIjAgBgkqhkiG9w0BCQEWE2Nvcnlh
bkBjcy53dXN0bC5lZHWCAQAwDQYJKoZIhvcNAQEEBQADgYEAqdOT2oaIVhWA/3x5
7EuUURzCTR9yw8wY9JiT7+kopuIWYARPz/VS6modMpMQqceicztAQ7k86m1QKvZw
1jFINNb5rY1E5YoUMFGHmRxsU/6d0f9U4iYOYnQ2KqV1P1Vacz01vfskAyDGT2Gz
F/wryqaf9NSWdR6QB7/8hU66oqU=
-----END CERTIFICATE-----

