issuer :/C=US/ST=Missouri/L=St.Louis/O=Testing CA/CN=Carlos O'Ryan/Email=coryan@cs.wustl.edu
subject:/C=US/ST=Missouri/L=St.Louis/O=Foo Bar Baz Inc./CN=Carlos O'Ryan/Email=coryan@cs.wustl.edu
serial :02

Certificate:
    Data:
        Version: 3 (0x2)
        Serial Number: 2 (0x2)
        Signature Algorithm: md5WithRSAEncryption
        Issuer: C=US, ST=Missouri, L=St.Louis, O=Testing CA, CN=Carlos O'Ryan/Email=coryan@cs.wustl.edu
        Validity
            Not Before: Dec  7 19:18:49 1999 GMT
            Not After : Dec  6 19:18:49 2000 GMT
        Subject: C=US, ST=Missouri, L=St.Louis, O=Foo Bar Baz Inc., CN=Carlos O'Ryan/Email=coryan@cs.wustl.edu
        Subject Public Key Info:
            Public Key Algorithm: rsaEncryption
            RSA Public Key: (1024 bit)
                Modulus (1024 bit):
                    00:c1:b9:05:c9:42:15:bb:e5:76:49:7d:ab:72:b0:
                    61:c4:df:f4:57:15:e3:12:07:c4:ce:93:f8:1e:5e:
                    19:54:01:04:da:1e:3f:f4:f9:e4:0b:36:7c:f6:79:
                    df:17:16:8c:99:14:96:22:a1:4a:dc:00:7c:82:dc:
                    b1:af:ec:27:a6:84:f0:16:d1:91:01:81:71:bc:41:
                    7d:5e:1b:c4:fe:36:53:e1:e6:90:bc:a4:c8:3c:47:
                    ae:da:56:bf:d1:b3:78:ef:5e:c8:7b:94:8e:6b:a8:
                    24:3a:32:bd:5f:0a:0e:aa:55:d9:c9:c8:7d:38:80:
                    a2:af:e1:bd:08:bb:6f:45:0d
                Exponent: 65537 (0x10001)
        X509v3 extensions:
            X509v3 Basic Constraints: 
                CA:FALSE
            Netscape Comment: 
                OpenSSL Generated Certificate
            X509v3 Subject Key Identifier: 
                62:4A:17:A2:55:B9:50:71:6C:3A:99:64:0B:66:53:8B:83:A7:D1:30
            X509v3 Authority Key Identifier: 
                keyid:3F:A8:B9:3B:3C:3A:78:59:08:72:29:42:A3:11:F4:91:AF:EB:0B:DE
                DirName:/C=US/ST=Missouri/L=St.Louis/O=Testing CA/CN=Carlos O'Ryan/Email=coryan@cs.wustl.edu
                serial:00

    Signature Algorithm: md5WithRSAEncryption
        b6:61:32:0d:07:c5:92:61:49:7e:bb:05:90:93:3d:03:7f:74:
        cc:52:36:84:96:23:da:1b:e7:79:a3:c6:86:c4:77:a7:a9:9e:
        4b:dc:07:e1:d8:1b:ea:ad:96:4c:1f:7b:51:4b:92:aa:6f:79:
        c7:76:d7:f2:f3:a7:aa:91:a4:4b:07:fb:61:34:6b:95:26:7d:
        ce:b4:d2:7e:3e:8b:38:b9:98:6e:09:03:ab:9f:10:76:79:c2:
        03:1b:ba:6b:f7:ce:57:e4:d6:53:46:1a:f5:61:81:7c:e1:54:
        74:86:d7:64:4d:87:1b:f1:3a:c9:dd:b4:19:32:b6:44:b3:76:
        1d:4c

-----BEGIN CERTIFICATE-----
MIIDmDCCAwGgAwIBAgIBAjANBgkqhkiG9w0BAQQFADCBhDELMAkGA1UEBhMCVVMx
ETAPBgNVBAgTCE1pc3NvdXJpMREwDwYDVQQHEwhTdC5Mb3VpczETMBEGA1UEChMK
VGVzdGluZyBDQTEWMBQGA1UEAxMNQ2FybG9zIE8nUnlhbjEiMCAGCSqGSIb3DQEJ
ARYTY29yeWFuQGNzLnd1c3RsLmVkdTAeFw05OTEyMDcxOTE4NDlaFw0wMDEyMDYx
OTE4NDlaMIGKMQswCQYDVQQGEwJVUzERMA8GA1UECBMITWlzc291cmkxETAPBgNV
BAcTCFN0LkxvdWlzMRkwFwYDVQQKExBGb28gQmFyIEJheiBJbmMuMRYwFAYDVQQD
Ew1DYXJsb3MgTydSeWFuMSIwIAYJKoZIhvcNAQkBFhNjb3J5YW5AY3Mud3VzdGwu
ZWR1MIGfMA0GCSqGSIb3DQEBAQUAA4GNADCBiQKBgQDBuQXJQhW75XZJfatysGHE
3/RXFeMSB8TOk/geXhlUAQTaHj/0+eQLNnz2ed8XFoyZFJYioUrcAHyC3LGv7Cem
hPAW0ZEBgXG8QX1eG8T+NlPh5pC8pMg8R67aVr/Rs3jvXsh7lI5rqCQ6Mr1fCg6q
VdnJyH04gKKv4b0Iu29FDQIDAQABo4IBEDCCAQwwCQYDVR0TBAIwADAsBglghkgB
hvhCAQ0EHxYdT3BlblNTTCBHZW5lcmF0ZWQgQ2VydGlmaWNhdGUwHQYDVR0OBBYE
FGJKF6JVuVBxbDqZZAtmU4uDp9EwMIGxBgNVHSMEgakwgaaAFD+ouTs8OnhZCHIp
QqMR9JGv6wveoYGKpIGHMIGEMQswCQYDVQQGEwJVUzERMA8GA1UECBMITWlzc291
cmkxETAPBgNVBAcTCFN0LkxvdWlzMRMwEQYDVQQKEwpUZXN0aW5nIENBMRYwFAYD
VQQDEw1DYXJsb3MgTydSeWFuMSIwIAYJKoZIhvcNAQkBFhNjb3J5YW5AY3Mud3Vz
dGwuZWR1ggEAMA0GCSqGSIb3DQEBBAUAA4GBALZhMg0HxZJhSX67BZCTPQN/dMxS
NoSWI9ob53mjxobEd6epnkvcB+HYG+qtlkwfe1FLkqpvecd21/Lzp6qRpEsH+2E0
a5Umfc600n4+izi5mG4JA6ufEHZ5wgMbumv3zlfk1lNGGvVhgXzhVHSG12RNhxvx
OsndtBkytkSzdh1M
-----END CERTIFICATE-----

