Certificate:
    Data:
        Version: 3 (0x2)
        Serial Number:
            df:86:a0:81:95:d1:89:96
        Signature Algorithm: sha1WithRSAEncryption
        Issuer: C=US, ST=Missouri, O=Object Computing, Inc., OU=TAO, CN=John Smith/emailAddress=smith_j@ociweb.com
        Validity
            Not Before: Apr 20 18:08:47 2007 GMT
            Not After : Apr 19 18:08:47 2008 GMT
        Subject: C=US, ST=Missouri, L=St. Louis, O=OCI, OU=TAO, CN=John/emailAddress=john@ociweb.com
        Subject Public Key Info:
            Public Key Algorithm: rsaEncryption
            RSA Public Key: (1024 bit)
                Modulus (1024 bit):
                    00:cc:2e:93:85:f6:d0:7a:4d:23:29:2d:a5:ee:9e:
                    01:f8:52:0a:d3:bd:b2:bc:27:0a:8d:65:25:cf:fd:
                    b9:3b:14:be:f3:21:cb:d0:74:dd:18:23:c8:f4:e0:
                    e0:a5:b4:b3:30:01:4f:08:c4:98:05:60:f9:ac:43:
                    bb:7c:e2:a8:62:cf:42:b6:de:56:6d:d6:7f:52:d9:
                    36:a4:36:0a:56:da:67:d2:73:6a:97:9d:47:92:4d:
                    1c:6f:88:4e:a2:76:a6:00:47:d0:bb:60:91:9d:36:
                    af:21:cb:7a:52:9a:ce:fe:eb:ec:4b:c1:c5:4f:64:
                    0e:f5:96:01:3f:e1:20:47:29
                Exponent: 65537 (0x10001)
        X509v3 extensions:
            X509v3 Basic Constraints: 
                CA:FALSE
            Netscape Comment: 
                OpenSSL Generated Certificate
            X509v3 Subject Key Identifier: 
                1E:D1:B7:C7:4A:4E:DE:49:0A:62:0E:48:6E:57:5B:6B:AF:2D:80:F5
            X509v3 Authority Key Identifier: 
                keyid:41:D0:CC:3E:A1:3B:77:E3:BB:CC:D2:63:03:98:5F:E3:19:3C:C4:D2

    Signature Algorithm: sha1WithRSAEncryption
        01:0a:0c:44:51:3c:e0:0d:53:3c:0a:97:4c:ad:49:81:d4:6d:
        8c:56:eb:c7:f6:39:0d:d7:74:a3:96:af:de:2c:da:97:15:19:
        b8:96:c5:96:49:75:bc:ee:da:03:cd:ad:e5:f8:ac:a9:cf:1f:
        17:4a:22:b5:63:6f:f3:b2:59:f1:6f:37:84:4e:2d:8e:3a:5d:
        88:1d:a3:b2:b2:13:aa:73:fa:11:45:cc:1d:84:8a:ab:dd:10:
        2d:24:a9:df:e0:2e:6c:a9:50:a9:7a:fc:0f:f3:fc:66:36:bc:
        44:d6:16:a1:84:2c:b2:45:55:4b:02:6d:ef:29:11:fa:23:04:
        7c:72
-----BEGIN CERTIFICATE-----
MIIDADCCAmmgAwIBAgIJAN+GoIGV0YmWMA0GCSqGSIb3DQEBBQUAMIGHMQswCQYD
VQQGEwJVUzERMA8GA1UECBMITWlzc291cmkxHzAdBgNVBAoTFk9iamVjdCBDb21w
dXRpbmcsIEluYy4xDDAKBgNVBAsTA1RBTzETMBEGA1UEAxMKSm9obiBTbWl0aDEh
MB8GCSqGSIb3DQEJARYSc21pdGhfakBvY2l3ZWIuY29tMB4XDTA3MDQyMDE4MDg0
N1oXDTA4MDQxOTE4MDg0N1owfzELMAkGA1UEBhMCVVMxETAPBgNVBAgTCE1pc3Nv
dXJpMRIwEAYDVQQHEwlTdC4gTG91aXMxDDAKBgNVBAoTA09DSTEMMAoGA1UECxMD
VEFPMQ0wCwYDVQQDEwRKb2huMR4wHAYJKoZIhvcNAQkBFg9qb2huQG9jaXdlYi5j
b20wgZ8wDQYJKoZIhvcNAQEBBQADgY0AMIGJAoGBAMwuk4X20HpNIyktpe6eAfhS
CtO9srwnCo1lJc/9uTsUvvMhy9B03RgjyPTg4KW0szABTwjEmAVg+axDu3ziqGLP
QrbeVm3Wf1LZNqQ2ClbaZ9JzapedR5JNHG+ITqJ2pgBH0LtgkZ02ryHLelKazv7r
7EvBxU9kDvWWAT/hIEcpAgMBAAGjezB5MAkGA1UdEwQCMAAwLAYJYIZIAYb4QgEN
BB8WHU9wZW5TU0wgR2VuZXJhdGVkIENlcnRpZmljYXRlMB0GA1UdDgQWBBQe0bfH
Sk7eSQpiDkhuV1trry2A9TAfBgNVHSMEGDAWgBRB0Mw+oTt347vM0mMDmF/jGTzE
0jANBgkqhkiG9w0BAQUFAAOBgQABCgxEUTzgDVM8CpdMrUmB1G2MVuvH9jkN13Sj
lq/eLNqXFRm4lsWWSXW87toDza3l+Kypzx8XSiK1Y2/zslnxbzeETi2OOl2IHaOy
shOqc/oRRcwdhIqr3RAtJKnf4C5sqVCpevwP8/xmNrxE1hahhCyyRVVLAm3vKRH6
IwR8cg==
-----END CERTIFICATE-----
