Certificate:
    Data:
        Version: 3 (0x2)
        Serial Number:
            df:86:a0:81:95:d1:89:94
        Signature Algorithm: sha1WithRSAEncryption
        Issuer: C=US, ST=Missouri, O=Object Computing, Inc., OU=TAO, CN=John Smith/emailAddress=smith_j@ociweb.com
        Validity
            Not Before: Apr 20 16:38:13 2007 GMT
            Not After : Apr 19 16:38:13 2010 GMT
        Subject: C=US, ST=Missouri, O=Object Computing, Inc., OU=TAO, CN=John Smith/emailAddress=smith_j@ociweb.com
        Subject Public Key Info:
            Public Key Algorithm: rsaEncryption
            RSA Public Key: (1024 bit)
                Modulus (1024 bit):
                    00:e3:0c:c3:f2:f6:42:14:23:46:9c:24:ad:fb:8d:
                    20:21:e6:66:fd:1f:30:b4:11:54:7a:3b:70:5c:54:
                    6a:29:86:a0:0a:49:7a:78:f0:03:f0:5e:1e:46:de:
                    68:16:dc:c5:a6:ae:2e:d4:5f:0c:ea:13:87:17:e7:
                    e4:94:17:f7:36:ea:c8:3d:d9:f7:3e:63:76:48:2c:
                    60:2b:07:a8:b3:53:2a:c4:88:58:e7:c4:c4:0a:5a:
                    8a:1e:96:91:38:ca:70:15:22:20:d9:12:4c:ed:b0:
                    fb:2e:f1:4c:e0:b0:a6:12:fc:d5:3e:db:5e:2f:03:
                    30:20:0c:3f:7a:a5:c4:60:b3
                Exponent: 65537 (0x10001)
        X509v3 extensions:
            X509v3 Subject Key Identifier: 
                41:D0:CC:3E:A1:3B:77:E3:BB:CC:D2:63:03:98:5F:E3:19:3C:C4:D2
            X509v3 Authority Key Identifier: 
                keyid:41:D0:CC:3E:A1:3B:77:E3:BB:CC:D2:63:03:98:5F:E3:19:3C:C4:D2
                DirName:/C=US/ST=Missouri/O=Object Computing, Inc./OU=TAO/CN=John Smith/emailAddress=smith_j@ociweb.com
                serial:DF:86:A0:81:95:D1:89:94

            X509v3 Basic Constraints: 
                CA:TRUE
    Signature Algorithm: sha1WithRSAEncryption
        4e:0b:de:b9:42:6b:07:fa:1b:7a:b1:c8:54:83:74:ee:d2:08:
        99:05:86:a3:76:8f:c0:87:67:e0:90:23:df:64:a7:34:78:5c:
        33:eb:46:c7:19:71:16:47:e2:3c:b3:ef:a7:ba:52:51:3f:c5:
        17:43:6e:44:a8:91:70:70:15:8b:b9:bd:87:f7:12:3e:7e:3f:
        40:cd:2a:b4:9f:29:61:cc:db:ff:e0:6a:85:8c:74:97:46:68:
        96:39:7f:c7:05:49:e9:77:50:f4:7c:e2:be:2d:dc:cc:2c:dd:
        04:67:85:88:dd:67:54:8d:0e:9c:f3:74:b5:a3:c9:96:51:28:
        b2:9f
-----BEGIN CERTIFICATE-----
MIIDfjCCAuegAwIBAgIJAN+GoIGV0YmUMA0GCSqGSIb3DQEBBQUAMIGHMQswCQYD
VQQGEwJVUzERMA8GA1UECBMITWlzc291cmkxHzAdBgNVBAoTFk9iamVjdCBDb21w
dXRpbmcsIEluYy4xDDAKBgNVBAsTA1RBTzETMBEGA1UEAxMKSm9obiBTbWl0aDEh
MB8GCSqGSIb3DQEJARYSc21pdGhfakBvY2l3ZWIuY29tMB4XDTA3MDQyMDE2Mzgx
M1oXDTEwMDQxOTE2MzgxM1owgYcxCzAJBgNVBAYTAlVTMREwDwYDVQQIEwhNaXNz
b3VyaTEfMB0GA1UEChMWT2JqZWN0IENvbXB1dGluZywgSW5jLjEMMAoGA1UECxMD
VEFPMRMwEQYDVQQDEwpKb2huIFNtaXRoMSEwHwYJKoZIhvcNAQkBFhJzbWl0aF9q
QG9jaXdlYi5jb20wgZ8wDQYJKoZIhvcNAQEBBQADgY0AMIGJAoGBAOMMw/L2QhQj
RpwkrfuNICHmZv0fMLQRVHo7cFxUaimGoApJenjwA/BeHkbeaBbcxaauLtRfDOoT
hxfn5JQX9zbqyD3Z9z5jdkgsYCsHqLNTKsSIWOfExApaih6WkTjKcBUiINkSTO2w
+y7xTOCwphL81T7bXi8DMCAMP3qlxGCzAgMBAAGjge8wgewwHQYDVR0OBBYEFEHQ
zD6hO3fju8zSYwOYX+MZPMTSMIG8BgNVHSMEgbQwgbGAFEHQzD6hO3fju8zSYwOY
X+MZPMTSoYGNpIGKMIGHMQswCQYDVQQGEwJVUzERMA8GA1UECBMITWlzc291cmkx
HzAdBgNVBAoTFk9iamVjdCBDb21wdXRpbmcsIEluYy4xDDAKBgNVBAsTA1RBTzET
MBEGA1UEAxMKSm9obiBTbWl0aDEhMB8GCSqGSIb3DQEJARYSc21pdGhfakBvY2l3
ZWIuY29tggkA34aggZXRiZQwDAYDVR0TBAUwAwEB/zANBgkqhkiG9w0BAQUFAAOB
gQBOC965QmsH+ht6schUg3Tu0giZBYajdo/Ah2fgkCPfZKc0eFwz60bHGXEWR+I8
s++nulJRP8UXQ25EqJFwcBWLub2H9xI+fj9AzSq0nylhzNv/4GqFjHSXRmiWOX/H
BUnpd1D0fOK+LdzMLN0EZ4WI3WdUjQ6c83S1o8mWUSiynw==
-----END CERTIFICATE-----
