Certificate:
    Data:
        Version: 3 (0x2)
        Serial Number: 4097 (0x1001)
        Signature Algorithm: sha1WithRSAEncryption
        Issuer: C=US, ST=Tennessee, O=DOC Group
        Validity
            Not Before: Jun 15 14:01:34 2011 GMT
            Not After : May 25 14:01:34 2032 GMT
        Subject: C=US, ST=Tennessee, O=DOC Group, CN=Build Czar Client
        Subject Public Key Info:
            Public Key Algorithm: rsaEncryption
            RSA Public Key: (1024 bit)
                Modulus (1024 bit):
                    00:cf:7f:8e:42:bf:bb:c0:a6:23:7e:07:a4:13:ba:
                    b6:ba:cd:4c:ed:c4:9c:97:46:32:dc:d5:e9:63:59:
                    59:b8:7c:0d:7a:97:ad:3f:29:dd:fc:40:4e:48:cc:
                    b2:1b:15:c4:98:59:a8:b0:b0:38:23:d2:d8:81:22:
                    27:1b:77:64:d6:40:c0:02:41:b6:db:a8:25:4d:c6:
                    a1:f5:03:f6:fa:8a:d3:1c:b5:a4:a9:4c:a5:62:19:
                    89:e3:dc:d8:ac:68:47:96:0f:3c:10:1a:ec:00:81:
                    10:aa:13:3d:99:48:3a:ae:2b:ac:b9:de:5b:20:7c:
                    06:4e:57:64:af:2d:b3:88:ef
                Exponent: 65537 (0x10001)
        X509v3 extensions:
            X509v3 Basic Constraints: 
                CA:FALSE
            Netscape Comment: 
                OpenSSL Generated Certificate
            X509v3 Subject Key Identifier: 
                6F:13:BA:8B:91:ED:FA:22:DC:28:26:D4:74:5C:46:A7:B2:B2:A9:10
            X509v3 Authority Key Identifier: 
                keyid:FD:73:BE:F4:33:33:38:18:9F:B9:9C:69:D4:12:FE:81:31:95:03:0A

    Signature Algorithm: sha1WithRSAEncryption
        bc:6f:d5:c7:68:a0:3c:8d:3a:39:61:ff:50:80:c7:a3:b9:28:
        aa:c8:7b:7e:2d:af:26:e1:0a:39:94:9d:a8:94:c8:cd:82:f5:
        a5:fc:d1:df:3d:3f:55:c7:5b:f9:89:14:78:59:d6:64:2d:32:
        42:23:d9:96:9c:50:34:d2:81:17:e3:cc:09:57:13:fc:ae:3b:
        ed:ff:55:03:d5:c2:dd:a5:5a:f1:c5:66:55:9f:a2:77:74:2f:
        76:84:93:7c:03:b9:c1:9f:df:41:20:06:57:e4:e2:eb:e7:10:
        67:42:63:02:d1:a8:53:f1:4d:9b:91:71:37:e4:c2:02:dd:e1:
        b9:04
-----BEGIN CERTIFICATE-----
MIICeDCCAeGgAwIBAgICEAEwDQYJKoZIhvcNAQEFBQAwNTELMAkGA1UEBhMCVVMx
EjAQBgNVBAgTCVRlbm5lc3NlZTESMBAGA1UEChMJRE9DIEdyb3VwMB4XDTExMDYx
NTE0MDEzNFoXDTMyMDUyNTE0MDEzNFowUTELMAkGA1UEBhMCVVMxEjAQBgNVBAgT
CVRlbm5lc3NlZTESMBAGA1UEChMJRE9DIEdyb3VwMRowGAYDVQQDExFCdWlsZCBD
emFyIENsaWVudDCBnzANBgkqhkiG9w0BAQEFAAOBjQAwgYkCgYEAz3+OQr+7wKYj
fgekE7q2us1M7cScl0Yy3NXpY1lZuHwNepetPynd/EBOSMyyGxXEmFmosLA4I9LY
gSInG3dk1kDAAkG226glTcah9QP2+orTHLWkqUylYhmJ49zYrGhHlg88EBrsAIEQ
qhM9mUg6riusud5bIHwGTldkry2ziO8CAwEAAaN7MHkwCQYDVR0TBAIwADAsBglg
hkgBhvhCAQ0EHxYdT3BlblNTTCBHZW5lcmF0ZWQgQ2VydGlmaWNhdGUwHQYDVR0O
BBYEFG8TuouR7foi3Cgm1HRcRqeysqkQMB8GA1UdIwQYMBaAFP1zvvQzMzgYn7mc
adQS/oExlQMKMA0GCSqGSIb3DQEBBQUAA4GBALxv1cdooDyNOjlh/1CAx6O5KKrI
e34trybhCjmUnaiUyM2C9aX80d89P1XHW/mJFHhZ1mQtMkIj2ZacUDTSgRfjzAlX
E/yuO+3/VQPVwt2lWvHFZlWfond0L3aEk3wDucGf30EgBlfk4uvnEGdCYwLRqFPx
TZuRcTfkwgLd4bkE
-----END CERTIFICATE-----
