Certificate:
    Data:
        Version: 3 (0x2)
        Serial Number: 4096 (0x1000)
        Signature Algorithm: sha1WithRSAEncryption
        Issuer: C=US, ST=Tennessee, O=DOC Group
        Validity
            Not Before: Jun 15 14:01:15 2011 GMT
            Not After : May 25 14:01:15 2032 GMT
        Subject: C=US, ST=Tennessee, O=DOC Group, CN=DOC Group Build Czar Server
        Subject Public Key Info:
            Public Key Algorithm: rsaEncryption
            RSA Public Key: (1024 bit)
                Modulus (1024 bit):
                    00:b2:03:27:b9:d6:24:a4:6d:e1:9f:0e:d7:8a:71:
                    86:62:df:2b:f8:64:3b:51:53:e0:fa:71:9a:c2:10:
                    40:97:bd:06:27:43:5a:1a:1c:62:f4:ca:3e:b3:b9:
                    20:16:89:a2:aa:2e:1e:97:3a:70:3d:fe:f7:ff:ba:
                    d5:1e:b2:68:07:7e:d0:68:18:8a:3b:aa:9c:01:0e:
                    1e:ef:b5:97:96:d5:0b:a5:a0:fd:a3:02:21:b5:5a:
                    6f:e4:c1:36:bf:61:7b:40:ac:73:03:3d:40:75:e7:
                    9d:ba:22:ab:95:81:8b:74:9e:fa:df:27:18:a7:7f:
                    23:83:36:f0:15:22:22:db:7b
                Exponent: 65537 (0x10001)
        X509v3 extensions:
            X509v3 Basic Constraints: 
                CA:FALSE
            Netscape Comment: 
                OpenSSL Generated Certificate
            X509v3 Subject Key Identifier: 
                0C:27:05:12:9B:D5:4B:F9:43:32:6B:77:7B:A2:0D:34:7F:6C:0A:BC
            X509v3 Authority Key Identifier: 
                keyid:FD:73:BE:F4:33:33:38:18:9F:B9:9C:69:D4:12:FE:81:31:95:03:0A

    Signature Algorithm: sha1WithRSAEncryption
        0d:bf:65:2a:a5:02:75:6c:c4:5a:3c:1d:3c:25:51:16:1a:f8:
        78:ad:49:f6:f4:a4:c1:97:e4:c8:0b:ac:9e:71:0e:be:1e:e6:
        1d:2e:c7:d2:4f:1e:e8:c7:21:7c:58:27:0e:6d:93:11:7e:64:
        24:57:44:c1:c1:5a:d0:76:82:79:70:82:36:06:f2:48:60:e8:
        6a:20:a7:92:09:00:73:75:b2:f9:cb:97:35:d6:aa:8e:87:11:
        20:e2:dd:8a:c3:9c:c4:aa:f0:57:04:4e:e2:b3:8b:fb:9a:4f:
        4b:60:b7:2e:3b:89:98:38:02:25:24:ff:b1:f1:c0:ad:01:eb:
        37:bd
-----BEGIN CERTIFICATE-----
MIICgjCCAeugAwIBAgICEAAwDQYJKoZIhvcNAQEFBQAwNTELMAkGA1UEBhMCVVMx
EjAQBgNVBAgTCVRlbm5lc3NlZTESMBAGA1UEChMJRE9DIEdyb3VwMB4XDTExMDYx
NTE0MDExNVoXDTMyMDUyNTE0MDExNVowWzELMAkGA1UEBhMCVVMxEjAQBgNVBAgT
CVRlbm5lc3NlZTESMBAGA1UEChMJRE9DIEdyb3VwMSQwIgYDVQQDExtET0MgR3Jv
dXAgQnVpbGQgQ3phciBTZXJ2ZXIwgZ8wDQYJKoZIhvcNAQEBBQADgY0AMIGJAoGB
ALIDJ7nWJKRt4Z8O14pxhmLfK/hkO1FT4PpxmsIQQJe9BidDWhocYvTKPrO5IBaJ
oqouHpc6cD3+9/+61R6yaAd+0GgYijuqnAEOHu+1l5bVC6Wg/aMCIbVab+TBNr9h
e0CscwM9QHXnnboiq5WBi3Se+t8nGKd/I4M28BUiItt7AgMBAAGjezB5MAkGA1Ud
EwQCMAAwLAYJYIZIAYb4QgENBB8WHU9wZW5TU0wgR2VuZXJhdGVkIENlcnRpZmlj
YXRlMB0GA1UdDgQWBBQMJwUSm9VL+UMya3d7og00f2wKvDAfBgNVHSMEGDAWgBT9
c770MzM4GJ+5nGnUEv6BMZUDCjANBgkqhkiG9w0BAQUFAAOBgQANv2UqpQJ1bMRa
PB08JVEWGvh4rUn29KTBl+TIC6yecQ6+HuYdLsfSTx7oxyF8WCcObZMRfmQkV0TB
wVrQdoJ5cII2BvJIYOhqIKeSCQBzdbL5y5c11qqOhxEg4t2Kw5zEqvBXBE7is4v7
mk9LYLcuO4mYOAIlJP+x8cCtAes3vQ==
-----END CERTIFICATE-----
